; Function Attrs: mustprogress uwtable
define void @_ZN32pxrInternal_v0_24__pxrReserved__16TfTemplateStringC2Ev(ptr noundef nonnull align 8 dereferenceable(16) %0) unnamed_addr #0 align 2 personality ptr @__gxx_personality_v0 {
  %2 = tail call noalias noundef nonnull dereferenceable(96) ptr @_Znwm(i64 noundef 96) #15
  tail call void @_ZNSt7__cxx1112basic_stringIcSt11char_traitsIcESaIcEEC1Ev(ptr noundef nonnull align 8 dereferenceable(32) %2) #9
  %3 = getelementptr inbounds nuw i8, ptr %2, i64 32
  %4 = getelementptr inbounds nuw i8, ptr %2, i64 64
  tail call void @llvm.memset.p0.i64(ptr noundef nonnull align 8 dereferenceable(25) %3, i8 0, i64 25, i1 false)
  tail call void @llvm.memset.p0.i64(ptr noundef nonnull align 8 dereferenceable(25) %4, i8 0, i64 25, i1 false)
  store ptr %2, ptr %0, align 8
  %5 = getelementptr inbounds nuw i8, ptr %0, i64 8
  tail call void @_ZNSt14__shared_countILN9__gnu_cxx12_Lock_policyE2EEC2IPN32pxrInternal_v0_24__pxrReserved__16TfTemplateString5_DataEEET_(ptr noundef nonnull align 8 dereferenceable(8) %5, ptr noundef nonnull %2)
  ret void
}